; Function Attrs: nounwind uwtable
define dso_local range(i32 -2147483647, -2147483648) i32 @uv_tcp_nodelay(ptr noundef captures(none) %0, i32 noundef %1) local_unnamed_addr #0 {
  %3 = alloca i32, align 4
  %4 = getelementptr inbounds nuw i8, ptr %0, i64 184
  %5 = load i32, ptr %4, align 8
  %.not = icmp eq i32 %5, -1
  br i1 %.not, label %.sink.split, label %6

6:                                                ; preds = %2
  call void @llvm.lifetime.start.p0(i64 4, ptr nonnull %3)
  store i32 %1, ptr %3, align 4
  %7 = call i32 @setsockopt(i32 noundef %5, i32 noundef 6, i32 noundef 1, ptr noundef nonnull %3, i32 noundef 4) #7
  %.not.i = icmp eq i32 %7, 0
  br i1 %.not.i, label %uv__tcp_nodelay.exit.thread, label %uv__tcp_nodelay.exit

uv__tcp_nodelay.exit.thread:                      ; preds = %6
  call void @llvm.lifetime.end.p0(i64 4, ptr nonnull %3)
  br label %.sink.split

uv__tcp_nodelay.exit:                             ; preds = %6
  %8 = tail call ptr @__errno_location() #8
  %9 = load i32, ptr %8, align 4
  %10 = sub nsw i32 0, %9
  call void @llvm.lifetime.end.p0(i64 4, ptr nonnull %3)
  %.not10 = icmp eq i32 %9, 0
  br i1 %.not10, label %.sink.split, label %14

.sink.split:                                      ; preds = %uv__tcp_nodelay.exit.thread, %uv__tcp_nodelay.exit, %2
  %.not11 = icmp eq i32 %1, 0
  %11 = getelementptr inbounds nuw i8, ptr %0, i64 88
  %12 = load i32, ptr %11, align 8
  %13 = and i32 %12, -16777217
  %masksel = select i1 %.not11, i32 0, i32 16777216
  %.sink = or disjoint i32 %13, %masksel
  store i32 %.sink, ptr %11, align 8
  br label %14

14:                                               ; preds = %.sink.split, %uv__tcp_nodelay.exit
  %.0 = phi i32 [ %10, %uv__tcp_nodelay.exit ], [ 0, %.sink.split ]
  ret i32 %.0
}